target datalayout = "e-m:e-p270:32:32-p271:32:32-p272:64:64-i64:64-i128:128-f80:128-n8:16:32:64-S128"
target triple = "x86_64-unknown-linux-gnu"

%"class.std::__cxx11::basic_string" = type { %"struct.std::__cxx11::basic_string<char>::_Alloc_hider", i64, %union.anon }
%"struct.std::__cxx11::basic_string<char>::_Alloc_hider" = type { ptr }
%union.anon = type { i64, [8 x i8] }
%"class.std::basic_string_view" = type { i64, ptr }
%"class.arrow::internal::Uri" = type { %"class.std::unique_ptr" }
%"class.std::unique_ptr" = type { %"struct.std::__uniq_ptr_data" }
%"struct.std::__uniq_ptr_data" = type { %"class.std::__uniq_ptr_impl" }
%"class.std::__uniq_ptr_impl" = type { %"class.std::tuple" }
%"class.std::tuple" = type { %"struct.std::_Tuple_impl" }
%"struct.std::_Tuple_impl" = type { %"struct.std::_Head_base.2" }
%"struct.std::_Head_base.2" = type { ptr }
%"struct.arrow::internal::Uri::Impl" = type <{ %struct.UriUriStructA, %"class.std::vector", %"class.std::__cxx11::basic_string", i32, [4 x i8], %"class.std::vector.6", i8, i8, [6 x i8] }>
%struct.UriUriStructA = type { %struct.UriTextRangeStructA, %struct.UriTextRangeStructA, %struct.UriTextRangeStructA, %struct.UriHostDataStructA, %struct.UriTextRangeStructA, ptr, ptr, %struct.UriTextRangeStructA, %struct.UriTextRangeStructA, i32, i32, ptr }
%struct.UriHostDataStructA = type { ptr, ptr, %struct.UriTextRangeStructA }
%struct.UriTextRangeStructA = type { ptr, ptr }
%"class.std::vector" = type { %"struct.std::_Vector_base" }
%"struct.std::_Vector_base" = type { %"struct.std::_Vector_base<std::__cxx11::basic_string<char>, std::allocator<std::__cxx11::basic_string<char>>>::_Vector_impl" }
%"struct.std::_Vector_base<std::__cxx11::basic_string<char>, std::allocator<std::__cxx11::basic_string<char>>>::_Vector_impl" = type { %"struct.std::_Vector_base<std::__cxx11::basic_string<char>, std::allocator<std::__cxx11::basic_string<char>>>::_Vector_impl_data" }
%"struct.std::_Vector_base<std::__cxx11::basic_string<char>, std::allocator<std::__cxx11::basic_string<char>>>::_Vector_impl_data" = type { ptr, ptr, ptr }
%"class.std::vector.6" = type { %"struct.std::_Vector_base.7" }
%"struct.std::_Vector_base.7" = type { %"struct.std::_Vector_base<std::basic_string_view<char>, std::allocator<std::basic_string_view<char>>>::_Vector_impl" }
%"struct.std::_Vector_base<std::basic_string_view<char>, std::allocator<std::basic_string_view<char>>>::_Vector_impl" = type { %"struct.std::_Vector_base<std::basic_string_view<char>, std::allocator<std::basic_string_view<char>>>::_Vector_impl_data" }
%"struct.std::_Vector_base<std::basic_string_view<char>, std::allocator<std::basic_string_view<char>>>::_Vector_impl_data" = type { ptr, ptr, ptr }

@.str.5 = private unnamed_addr constant [1 x i8] zeroinitializer, align 1
@.str.16 = private unnamed_addr constant [26 x i8] c"basic_string_view::substr\00", align 1
@.str.17 = private unnamed_addr constant [49 x i8] c"%s: __pos (which is %zu) > __size (which is %zu)\00", align 1

; Function Attrs: mustprogress nounwind uwtable
define linkonce_odr noundef nonnull align 8 dereferenceable(8) ptr @_ZNSt10_Head_baseILm0EPN5arrow8internal3Uri4ImplELb0EE7_M_headERKS5_(ptr noundef nonnull align 8 dereferenceable(8) %__b) #1 comdat align 2 {
entry:
  %__b.addr = alloca ptr, align 8
  store ptr %__b, ptr %__b.addr, align 8
  %0 = load ptr, ptr %__b.addr, align 8
  %_M_head_impl = getelementptr inbounds %"struct.std::_Head_base.2", ptr %0, i32 0, i32 0
  ret ptr %_M_head_impl
}

; Function Attrs: mustprogress nounwind uwtable
define linkonce_odr noundef nonnull align 8 dereferenceable(8) ptr @_ZNSt11_Tuple_implILm0EJPN5arrow8internal3Uri4ImplESt14default_deleteIS3_EEE7_M_headERKS7_(ptr noundef nonnull align 8 dereferenceable(8) %__t) #1 comdat align 2 {
entry:
  %__t.addr = alloca ptr, align 8
  store ptr %__t, ptr %__t.addr, align 8
  %0 = load ptr, ptr %__t.addr, align 8
  %call = call noundef nonnull align 8 dereferenceable(8) ptr @_ZNSt10_Head_baseILm0EPN5arrow8internal3Uri4ImplELb0EE7_M_headERKS5_(ptr noundef nonnull align 8 dereferenceable(8) %0) #11
  ret ptr %call
}

; Function Attrs: mustprogress nounwind uwtable
define linkonce_odr noundef nonnull align 8 dereferenceable(8) ptr @_ZSt12__get_helperILm0EPN5arrow8internal3Uri4ImplEJSt14default_deleteIS3_EEERKT0_RKSt11_Tuple_implIXT_EJS7_DpT1_EE(ptr noundef nonnull align 8 dereferenceable(8) %__t) #1 comdat {
entry:
  %__t.addr = alloca ptr, align 8
  store ptr %__t, ptr %__t.addr, align 8
  %0 = load ptr, ptr %__t.addr, align 8
  %call = call noundef nonnull align 8 dereferenceable(8) ptr @_ZNSt11_Tuple_implILm0EJPN5arrow8internal3Uri4ImplESt14default_deleteIS3_EEE7_M_headERKS7_(ptr noundef nonnull align 8 dereferenceable(8) %0) #11
  ret ptr %call
}

; Function Attrs: mustprogress nounwind uwtable
define linkonce_odr noundef nonnull align 8 dereferenceable(8) ptr @_ZSt3getILm0EJPN5arrow8internal3Uri4ImplESt14default_deleteIS3_EEERKNSt13tuple_elementIXT_ESt5tupleIJDpT0_EEE4typeERKSB_(ptr noundef nonnull align 8 dereferenceable(8) %__t) #1 comdat {
entry:
  %__t.addr = alloca ptr, align 8
  store ptr %__t, ptr %__t.addr, align 8
  %0 = load ptr, ptr %__t.addr, align 8
  %call = call noundef nonnull align 8 dereferenceable(8) ptr @_ZSt12__get_helperILm0EPN5arrow8internal3Uri4ImplEJSt14default_deleteIS3_EEERKT0_RKSt11_Tuple_implIXT_EJS7_DpT1_EE(ptr noundef nonnull align 8 dereferenceable(8) %0) #11
  ret ptr %call
}

; Function Attrs: mustprogress nounwind uwtable
define linkonce_odr noundef ptr @_ZNSt11char_traitsIcE4findEPKcmRS1_(ptr noundef %__s, i64 noundef %__n, ptr noundef nonnull align 1 dereferenceable(1) %__a) #1 comdat align 2 {
entry:
  %retval = alloca ptr, align 8
  %__s.addr = alloca ptr, align 8
  %__n.addr = alloca i64, align 8
  %__a.addr = alloca ptr, align 8
  store ptr %__s, ptr %__s.addr, align 8
  store i64 %__n, ptr %__n.addr, align 8
  store ptr %__a, ptr %__a.addr, align 8
  %0 = load i64, ptr %__n.addr, align 8
  %cmp = icmp eq i64 %0, 0
  br i1 %cmp, label %if.then, label %if.end

if.then:                                          ; preds = %entry
  store ptr null, ptr %retval, align 8
  br label %return

if.end:                                           ; preds = %entry
  %1 = load ptr, ptr %__s.addr, align 8
  %2 = load ptr, ptr %__a.addr, align 8
  %3 = load i8, ptr %2, align 1
  %conv = sext i8 %3 to i32
  %4 = load i64, ptr %__n.addr, align 8
  %call = call ptr @memchr(ptr noundef %1, i32 noundef %conv, i64 noundef %4) #11
  store ptr %call, ptr %retval, align 8
  br label %return

return:                                           ; preds = %if.end, %if.then
  %5 = load ptr, ptr %retval, align 8
  ret ptr %5
}

; Function Attrs: mustprogress nounwind uwtable
define linkonce_odr noundef i64 @_ZNSt11char_traitsIcE6lengthEPKc(ptr noundef %__s) #1 comdat align 2 {
entry:
  %__s.addr = alloca ptr, align 8
  store ptr %__s, ptr %__s.addr, align 8
  %0 = load ptr, ptr %__s.addr, align 8
  %call = call i64 @strlen(ptr noundef %0) #11
  ret i64 %call
}

; Function Attrs: mustprogress nounwind uwtable
define linkonce_odr noundef ptr @_ZNKSt15__uniq_ptr_implIN5arrow8internal3Uri4ImplESt14default_deleteIS3_EE6_M_ptrEv(ptr noundef nonnull align 8 dereferenceable(8) %this) #1 comdat align 2 {
entry:
  %this.addr = alloca ptr, align 8
  store ptr %this, ptr %this.addr, align 8
  %this1 = load ptr, ptr %this.addr, align 8
  %_M_t = getelementptr inbounds %"class.std::__uniq_ptr_impl", ptr %this1, i32 0, i32 0
  %call = call noundef nonnull align 8 dereferenceable(8) ptr @_ZSt3getILm0EJPN5arrow8internal3Uri4ImplESt14default_deleteIS3_EEERKNSt13tuple_elementIXT_ESt5tupleIJDpT0_EEE4typeERKSB_(ptr noundef nonnull align 8 dereferenceable(8) %_M_t) #11
  %0 = load ptr, ptr %call, align 8
  ret ptr %0
}

; Function Attrs: mustprogress nounwind uwtable
define linkonce_odr noundef nonnull align 8 dereferenceable(8) ptr @_ZSt3minImERKT_S2_S2_(ptr noundef nonnull align 8 dereferenceable(8) %__a, ptr noundef nonnull align 8 dereferenceable(8) %__b) #1 comdat {
entry:
  %retval = alloca ptr, align 8
  %__a.addr = alloca ptr, align 8
  %__b.addr = alloca ptr, align 8
  store ptr %__a, ptr %__a.addr, align 8
  store ptr %__b, ptr %__b.addr, align 8
  %0 = load ptr, ptr %__b.addr, align 8
  %1 = load i64, ptr %0, align 8
  %2 = load ptr, ptr %__a.addr, align 8
  %3 = load i64, ptr %2, align 8
  %cmp = icmp ult i64 %1, %3
  br i1 %cmp, label %if.then, label %if.end

if.then:                                          ; preds = %entry
  %4 = load ptr, ptr %__b.addr, align 8
  store ptr %4, ptr %retval, align 8
  br label %return

if.end:                                           ; preds = %entry
  %5 = load ptr, ptr %__a.addr, align 8
  store ptr %5, ptr %retval, align 8
  br label %return

return:                                           ; preds = %if.end, %if.then
  %6 = load ptr, ptr %retval, align 8
  ret ptr %6
}

; Function Attrs: mustprogress uwtable
define linkonce_odr noundef i64 @_ZSt10__sv_checkmmPKc(i64 noundef %__size, i64 noundef %__pos, ptr noundef %__s) #0 comdat {
entry:
  %__size.addr = alloca i64, align 8
  %__pos.addr = alloca i64, align 8
  %__s.addr = alloca ptr, align 8
  store i64 %__size, ptr %__size.addr, align 8
  store i64 %__pos, ptr %__pos.addr, align 8
  store ptr %__s, ptr %__s.addr, align 8
  %0 = load i64, ptr %__pos.addr, align 8
  %1 = load i64, ptr %__size.addr, align 8
  %cmp = icmp ugt i64 %0, %1
  br i1 %cmp, label %if.then, label %if.end

if.then:                                          ; preds = %entry
  %2 = load ptr, ptr %__s.addr, align 8
  %3 = load i64, ptr %__pos.addr, align 8
  %4 = load i64, ptr %__size.addr, align 8
  call void (ptr, ...) @_ZSt24__throw_out_of_range_fmtPKcz(ptr noundef @.str.17, ptr noundef %2, i64 noundef %3, i64 noundef %4) #14
  unreachable

if.end:                                           ; preds = %entry
  %5 = load i64, ptr %__pos.addr, align 8
  ret i64 %5
}

; Function Attrs: mustprogress nounwind uwtable
define linkonce_odr noundef i64 @_ZNKSt17basic_string_viewIcSt11char_traitsIcEE4sizeEv(ptr noundef nonnull align 8 dereferenceable(16) %this) #1 comdat align 2 {
entry:
  %this.addr = alloca ptr, align 8
  store ptr %this, ptr %this.addr, align 8
  %this1 = load ptr, ptr %this.addr, align 8
  %_M_len = getelementptr inbounds %"class.std::basic_string_view", ptr %this1, i32 0, i32 0
  %0 = load i64, ptr %_M_len, align 8
  ret i64 %0
}

; Function Attrs: mustprogress nounwind uwtable
define linkonce_odr noundef i64 @_ZNKSt17basic_string_viewIcSt11char_traitsIcEE4findEcm(ptr noundef nonnull align 8 dereferenceable(16) %this, i8 noundef signext %__c, i64 noundef %__pos) #1 comdat align 2 {
entry:
  %this.addr = alloca ptr, align 8
  %__c.addr = alloca i8, align 1
  %__pos.addr = alloca i64, align 8
  %__ret = alloca i64, align 8
  %__n = alloca i64, align 8
  %__p = alloca ptr, align 8
  store ptr %this, ptr %this.addr, align 8
  store i8 %__c, ptr %__c.addr, align 1
  store i64 %__pos, ptr %__pos.addr, align 8
  %this1 = load ptr, ptr %this.addr, align 8
  store i64 -1, ptr %__ret, align 8
  %0 = load i64, ptr %__pos.addr, align 8
  %_M_len = getelementptr inbounds %"class.std::basic_string_view", ptr %this1, i32 0, i32 0
  %1 = load i64, ptr %_M_len, align 8
  %cmp = icmp ult i64 %0, %1
  br i1 %cmp, label %if.then, label %if.end5

if.then:                                          ; preds = %entry
  %_M_len2 = getelementptr inbounds %"class.std::basic_string_view", ptr %this1, i32 0, i32 0
  %2 = load i64, ptr %_M_len2, align 8
  %3 = load i64, ptr %__pos.addr, align 8
  %sub = sub i64 %2, %3
  store i64 %sub, ptr %__n, align 8
  %_M_str = getelementptr inbounds %"class.std::basic_string_view", ptr %this1, i32 0, i32 1
  %4 = load ptr, ptr %_M_str, align 8
  %5 = load i64, ptr %__pos.addr, align 8
  %add.ptr = getelementptr inbounds i8, ptr %4, i64 %5
  %6 = load i64, ptr %__n, align 8
  %call = call noundef ptr @_ZNSt11char_traitsIcE4findEPKcmRS1_(ptr noundef %add.ptr, i64 noundef %6, ptr noundef nonnull align 1 dereferenceable(1) %__c.addr)
  store ptr %call, ptr %__p, align 8
  %7 = load ptr, ptr %__p, align 8
  %tobool = icmp ne ptr %7, null
  br i1 %tobool, label %if.then3, label %if.end

if.then3:                                         ; preds = %if.then
  %8 = load ptr, ptr %__p, align 8
  %_M_str4 = getelementptr inbounds %"class.std::basic_string_view", ptr %this1, i32 0, i32 1
  %9 = load ptr, ptr %_M_str4, align 8
  %sub.ptr.lhs.cast = ptrtoint ptr %8 to i64
  %sub.ptr.rhs.cast = ptrtoint ptr %9 to i64
  %sub.ptr.sub = sub i64 %sub.ptr.lhs.cast, %sub.ptr.rhs.cast
  store i64 %sub.ptr.sub, ptr %__ret, align 8
  br label %if.end

if.end:                                           ; preds = %if.then3, %if.then
  br label %if.end5

if.end5:                                          ; preds = %if.end, %entry
  %10 = load i64, ptr %__ret, align 8
  ret i64 %10
}

; Function Attrs: mustprogress nounwind uwtable
define linkonce_odr void @_ZNSt17basic_string_viewIcSt11char_traitsIcEEC2EPKcm(ptr noundef nonnull align 8 dereferenceable(16) %this, ptr noundef %__str, i64 noundef %__len) unnamed_addr #1 comdat align 2 {
entry:
  %this.addr = alloca ptr, align 8
  %__str.addr = alloca ptr, align 8
  %__len.addr = alloca i64, align 8
  store ptr %this, ptr %this.addr, align 8
  store ptr %__str, ptr %__str.addr, align 8
  store i64 %__len, ptr %__len.addr, align 8
  %this1 = load ptr, ptr %this.addr, align 8
  %_M_len = getelementptr inbounds %"class.std::basic_string_view", ptr %this1, i32 0, i32 0
  %0 = load i64, ptr %__len.addr, align 8
  store i64 %0, ptr %_M_len, align 8
  %_M_str = getelementptr inbounds %"class.std::basic_string_view", ptr %this1, i32 0, i32 1
  %1 = load ptr, ptr %__str.addr, align 8
  store ptr %1, ptr %_M_str, align 8
  ret void
}

; Function Attrs: mustprogress nounwind uwtable
define linkonce_odr void @_ZNSt17basic_string_viewIcSt11char_traitsIcEEC2EPKc(ptr noundef nonnull align 8 dereferenceable(16) %this, ptr noundef nonnull %__str) unnamed_addr #1 comdat align 2 {
entry:
  %this.addr = alloca ptr, align 8
  %__str.addr = alloca ptr, align 8
  store ptr %this, ptr %this.addr, align 8
  store ptr %__str, ptr %__str.addr, align 8
  %this1 = load ptr, ptr %this.addr, align 8
  %_M_len = getelementptr inbounds %"class.std::basic_string_view", ptr %this1, i32 0, i32 0
  %0 = load ptr, ptr %__str.addr, align 8
  %call = call noundef i64 @_ZNSt11char_traitsIcE6lengthEPKc(ptr noundef %0)
  store i64 %call, ptr %_M_len, align 8
  %_M_str = getelementptr inbounds %"class.std::basic_string_view", ptr %this1, i32 0, i32 1
  %1 = load ptr, ptr %__str.addr, align 8
  store ptr %1, ptr %_M_str, align 8
  ret void
}

; Function Attrs: mustprogress nounwind uwtable
define linkonce_odr noundef ptr @_ZNKSt10unique_ptrIN5arrow8internal3Uri4ImplESt14default_deleteIS3_EE3getEv(ptr noundef nonnull align 8 dereferenceable(8) %this) #1 comdat align 2 {
entry:
  %this.addr = alloca ptr, align 8
  store ptr %this, ptr %this.addr, align 8
  %this1 = load ptr, ptr %this.addr, align 8
  %_M_t = getelementptr inbounds %"class.std::unique_ptr", ptr %this1, i32 0, i32 0
  %call = call noundef ptr @_ZNKSt15__uniq_ptr_implIN5arrow8internal3Uri4ImplESt14default_deleteIS3_EE6_M_ptrEv(ptr noundef nonnull align 8 dereferenceable(8) %_M_t) #11
  ret ptr %call
}

; Function Attrs: mustprogress uwtable
define linkonce_odr { i64, ptr } @_ZNKSt17basic_string_viewIcSt11char_traitsIcEE6substrEmm(ptr noundef nonnull align 8 dereferenceable(16) %this, i64 noundef %__pos, i64 noundef %__n) #0 comdat align 2 {
entry:
  %retval = alloca %"class.std::basic_string_view", align 8
  %this.addr = alloca ptr, align 8
  %__pos.addr = alloca i64, align 8
  %__n.addr = alloca i64, align 8
  %__rlen = alloca i64, align 8
  %ref.tmp = alloca i64, align 8
  store ptr %this, ptr %this.addr, align 8
  store i64 %__pos, ptr %__pos.addr, align 8
  store i64 %__n, ptr %__n.addr, align 8
  %this1 = load ptr, ptr %this.addr, align 8
  %call = call noundef i64 @_ZNKSt17basic_string_viewIcSt11char_traitsIcEE4sizeEv(ptr noundef nonnull align 8 dereferenceable(16) %this1) #11
  %0 = load i64, ptr %__pos.addr, align 8
  %call2 = call noundef i64 @_ZSt10__sv_checkmmPKc(i64 noundef %call, i64 noundef %0, ptr noundef @.str.16)
  store i64 %call2, ptr %__pos.addr, align 8
  %_M_len = getelementptr inbounds %"class.std::basic_string_view", ptr %this1, i32 0, i32 0
  %1 = load i64, ptr %_M_len, align 8
  %2 = load i64, ptr %__pos.addr, align 8
  %sub = sub i64 %1, %2
  store i64 %sub, ptr %ref.tmp, align 8
  %call3 = call noundef nonnull align 8 dereferenceable(8) ptr @_ZSt3minImERKT_S2_S2_(ptr noundef nonnull align 8 dereferenceable(8) %__n.addr, ptr noundef nonnull align 8 dereferenceable(8) %ref.tmp)
  %3 = load i64, ptr %call3, align 8
  store i64 %3, ptr %__rlen, align 8
  %_M_str = getelementptr inbounds %"class.std::basic_string_view", ptr %this1, i32 0, i32 1
  %4 = load ptr, ptr %_M_str, align 8
  %5 = load i64, ptr %__pos.addr, align 8
  %add.ptr = getelementptr inbounds i8, ptr %4, i64 %5
  %6 = load i64, ptr %__rlen, align 8
  call void @_ZNSt17basic_string_viewIcSt11char_traitsIcEEC2EPKcm(ptr noundef nonnull align 8 dereferenceable(16) %retval, ptr noundef %add.ptr, i64 noundef %6) #11
  %7 = load { i64, ptr }, ptr %retval, align 8
  ret { i64, ptr } %7
}

; Function Attrs: mustprogress nounwind uwtable
define linkonce_odr noundef i64 @_ZNKSt17basic_string_viewIcSt11char_traitsIcEE13find_first_ofEcm(ptr noundef nonnull align 8 dereferenceable(16) %this, i8 noundef signext %__c, i64 noundef %__pos) #1 comdat align 2 {
entry:
  %this.addr = alloca ptr, align 8
  %__c.addr = alloca i8, align 1
  %__pos.addr = alloca i64, align 8
  store ptr %this, ptr %this.addr, align 8
  store i8 %__c, ptr %__c.addr, align 1
  store i64 %__pos, ptr %__pos.addr, align 8
  %this1 = load ptr, ptr %this.addr, align 8
  %0 = load i8, ptr %__c.addr, align 1
  %1 = load i64, ptr %__pos.addr, align 8
  %call = call noundef i64 @_ZNKSt17basic_string_viewIcSt11char_traitsIcEE4findEcm(ptr noundef nonnull align 8 dereferenceable(16) %this1, i8 noundef signext %0, i64 noundef %1) #11
  ret i64 %call
}

; Function Attrs: mustprogress nounwind uwtable
define internal { i64, ptr } @_ZN5arrow8internal12_GLOBAL__N_115TextRangeToViewERK19UriTextRangeStructA(ptr noundef nonnull align 8 dereferenceable(16) %range) #1 {
entry:
  %retval = alloca %"class.std::basic_string_view", align 8
  %range.addr = alloca ptr, align 8
  store ptr %range, ptr %range.addr, align 8
  %0 = load ptr, ptr %range.addr, align 8
  %first = getelementptr inbounds %struct.UriTextRangeStructA, ptr %0, i32 0, i32 0
  %1 = load ptr, ptr %first, align 8
  %cmp = icmp eq ptr %1, null
  br i1 %cmp, label %if.then, label %if.else

if.then:                                          ; preds = %entry
  call void @_ZNSt17basic_string_viewIcSt11char_traitsIcEEC2EPKc(ptr noundef nonnull align 8 dereferenceable(16) %retval, ptr noundef @.str.5) #11
  br label %return

if.else:                                          ; preds = %entry
  %2 = load ptr, ptr %range.addr, align 8
  %first1 = getelementptr inbounds %struct.UriTextRangeStructA, ptr %2, i32 0, i32 0
  %3 = load ptr, ptr %first1, align 8
  %4 = load ptr, ptr %range.addr, align 8
  %afterLast = getelementptr inbounds %struct.UriTextRangeStructA, ptr %4, i32 0, i32 1
  %5 = load ptr, ptr %afterLast, align 8
  %6 = load ptr, ptr %range.addr, align 8
  %first2 = getelementptr inbounds %struct.UriTextRangeStructA, ptr %6, i32 0, i32 0
  %7 = load ptr, ptr %first2, align 8
  %sub.ptr.lhs.cast = ptrtoint ptr %5 to i64
  %sub.ptr.rhs.cast = ptrtoint ptr %7 to i64
  %sub.ptr.sub = sub i64 %sub.ptr.lhs.cast, %sub.ptr.rhs.cast
  call void @_ZNSt17basic_string_viewIcSt11char_traitsIcEEC2EPKcm(ptr noundef nonnull align 8 dereferenceable(16) %retval, ptr noundef %3, i64 noundef %sub.ptr.sub) #11
  br label %return

return:                                           ; preds = %if.else, %if.then
  %8 = load { i64, ptr }, ptr %retval, align 8
  ret { i64, ptr } %8
}

; Function Attrs: mustprogress nounwind uwtable
define linkonce_odr noundef ptr @_ZNKSt10unique_ptrIN5arrow8internal3Uri4ImplESt14default_deleteIS3_EEptEv(ptr noundef nonnull align 8 dereferenceable(8) %this) #1 comdat align 2 {
entry:
  %this.addr = alloca ptr, align 8
  store ptr %this, ptr %this.addr, align 8
  %this1 = load ptr, ptr %this.addr, align 8
  %call = call noundef ptr @_ZNKSt10unique_ptrIN5arrow8internal3Uri4ImplESt14default_deleteIS3_EE3getEv(ptr noundef nonnull align 8 dereferenceable(8) %this1) #11
  ret ptr %call
}

; Function Attrs: mustprogress uwtable
define void @_ZNK5arrow8internal3Uri8passwordB5cxx11Ev(ptr noalias sret(%"class.std::__cxx11::basic_string") align 8 %agg.result, ptr noundef nonnull align 8 dereferenceable(8) %this) #0 align 2 {
entry:
  %result.ptr = alloca ptr, align 8
  %this.addr = alloca ptr, align 8
  %userpass = alloca %"class.std::basic_string_view", align 8
  %sep_pos = alloca i64, align 8
  %agg.tmp = alloca %"class.std::basic_string_view", align 8
  store ptr %agg.result, ptr %result.ptr, align 8
  store ptr %this, ptr %this.addr, align 8
  %this1 = load ptr, ptr %this.addr, align 8
  %impl_ = getelementptr inbounds %"class.arrow::internal::Uri", ptr %this1, i32 0, i32 0
  %call = call noundef ptr @_ZNKSt10unique_ptrIN5arrow8internal3Uri4ImplESt14default_deleteIS3_EEptEv(ptr noundef nonnull align 8 dereferenceable(8) %impl_) #11
  %uri_ = getelementptr inbounds %"struct.arrow::internal::Uri::Impl", ptr %call, i32 0, i32 0
  %userInfo = getelementptr inbounds %struct.UriUriStructA, ptr %uri_, i32 0, i32 1
  %call2 = call { i64, ptr } @_ZN5arrow8internal12_GLOBAL__N_115TextRangeToViewERK19UriTextRangeStructA(ptr noundef nonnull align 8 dereferenceable(16) %userInfo)
  %0 = getelementptr inbounds { i64, ptr }, ptr %userpass, i32 0, i32 0
  %1 = extractvalue { i64, ptr } %call2, 0
  store i64 %1, ptr %0, align 8
  %2 = getelementptr inbounds { i64, ptr }, ptr %userpass, i32 0, i32 1
  %3 = extractvalue { i64, ptr } %call2, 1
  store ptr %3, ptr %2, align 8
  %call3 = call noundef i64 @_ZNKSt17basic_string_viewIcSt11char_traitsIcEE13find_first_ofEcm(ptr noundef nonnull align 8 dereferenceable(16) %userpass, i8 noundef signext 58, i64 noundef 0) #11
  store i64 %call3, ptr %sep_pos, align 8
  %4 = load i64, ptr %sep_pos, align 8
  %cmp = icmp eq i64 %4, -1
  br i1 %cmp, label %if.then, label %if.else

if.then:                                          ; preds = %entry
  call void @_ZNSt7__cxx1112basic_stringIcSt11char_traitsIcESaIcEEC1Ev(ptr noundef nonnull align 8 dereferenceable(32) %agg.result) #11
  br label %return

if.else:                                          ; preds = %entry
  %5 = load i64, ptr %sep_pos, align 8
  %add = add i64 %5, 1
  %call4 = call { i64, ptr } @_ZNKSt17basic_string_viewIcSt11char_traitsIcEE6substrEmm(ptr noundef nonnull align 8 dereferenceable(16) %userpass, i64 noundef %add, i64 noundef -1)
  %6 = getelementptr inbounds { i64, ptr }, ptr %agg.tmp, i32 0, i32 0
  %7 = extractvalue { i64, ptr } %call4, 0
  store i64 %7, ptr %6, align 8
  %8 = getelementptr inbounds { i64, ptr }, ptr %agg.tmp, i32 0, i32 1
  %9 = extractvalue { i64, ptr } %call4, 1
  store ptr %9, ptr %8, align 8
  %10 = getelementptr inbounds { i64, ptr }, ptr %agg.tmp, i32 0, i32 0
  %11 = load i64, ptr %10, align 8
  %12 = getelementptr inbounds { i64, ptr }, ptr %agg.tmp, i32 0, i32 1
  %13 = load ptr, ptr %12, align 8
  call void @_ZN5arrow8internal11UriUnescapeB5cxx11ESt17basic_string_viewIcSt11char_traitsIcEE(ptr sret(%"class.std::__cxx11::basic_string") align 8 %agg.result, i64 %11, ptr %13)
  br label %return

return:                                           ; preds = %if.else, %if.then
  ret void
}