; Function Attrs: mustprogress uwtable
define void @_ZNK5arrow8internal3Uri8passwordB5cxx11Ev(ptr noalias sret(%"class.std::__cxx11::basic_string") align 8 %agg.result, ptr nocapture noundef nonnull readonly align 8 dereferenceable(8) %this) local_unnamed_addr #0 align 2 {
entry:
  %0 = load ptr, ptr %this, align 8
  %userInfo = getelementptr inbounds i8, ptr %0, i64 16
  %userInfo.val = load ptr, ptr %userInfo, align 8
  %1 = getelementptr i8, ptr %0, i64 24
  %userInfo.val2 = load ptr, ptr %1, align 8
  %cmp.i = icmp eq ptr %userInfo.val, null
  %sub.ptr.lhs.cast.i = ptrtoint ptr %userInfo.val2 to i64
  %sub.ptr.rhs.cast.i = ptrtoint ptr %userInfo.val to i64
  %sub.ptr.sub.i = sub i64 %sub.ptr.lhs.cast.i, %sub.ptr.rhs.cast.i
  %cmp.i.i.not11 = icmp eq ptr %userInfo.val2, %userInfo.val
  %cmp.i.i.not = select i1 %cmp.i, i1 true, i1 %cmp.i.i.not11
  br i1 %cmp.i.i.not, label %if.then, label %if.then.i.i

if.then.i.i:                                      ; preds = %entry
  %call.i.i.i = tail call ptr @memchr(ptr noundef nonnull %userInfo.val, i32 noundef 58, i64 noundef %sub.ptr.sub.i) #18
  %tobool.not.i.i = icmp eq ptr %call.i.i.i, null
  br i1 %tobool.not.i.i, label %if.then, label %_ZNKSt17basic_string_viewIcSt11char_traitsIcEE13find_first_ofEcm.exit

_ZNKSt17basic_string_viewIcSt11char_traitsIcEE13find_first_ofEcm.exit: ; preds = %if.then.i.i
  %sub.ptr.lhs.cast.i.i = ptrtoint ptr %call.i.i.i to i64
  %sub.ptr.rhs.cast.i.i = ptrtoint ptr %userInfo.val to i64
  %sub.ptr.sub.i.i = sub i64 %sub.ptr.lhs.cast.i.i, %sub.ptr.rhs.cast.i.i
  %cmp = icmp eq i64 %sub.ptr.sub.i.i, -1
  br i1 %cmp, label %if.then, label %if.else

if.then:                                          ; preds = %entry, %if.then.i.i, %_ZNKSt17basic_string_viewIcSt11char_traitsIcEE13find_first_ofEcm.exit
  tail call void @_ZNSt7__cxx1112basic_stringIcSt11char_traitsIcESaIcEEC1Ev(ptr noundef nonnull align 8 dereferenceable(32) %agg.result) #18
  br label %return

if.else:                                          ; preds = %_ZNKSt17basic_string_viewIcSt11char_traitsIcEE13find_first_ofEcm.exit
  %add = add nuw i64 %sub.ptr.sub.i.i, 1
  %cmp.i.i3.not = icmp ugt i64 %sub.ptr.sub.i, %sub.ptr.sub.i.i
  br i1 %cmp.i.i3.not, label %_ZNKSt17basic_string_viewIcSt11char_traitsIcEE6substrEmm.exit, label %if.then.i.i6

if.then.i.i6:                                     ; preds = %if.else
  tail call void (ptr, ...) @_ZSt24__throw_out_of_range_fmtPKcz(ptr noundef nonnull @.str.17, ptr noundef nonnull @.str.16, i64 noundef %add, i64 noundef %sub.ptr.sub.i) #21
  unreachable

_ZNKSt17basic_string_viewIcSt11char_traitsIcEE6substrEmm.exit: ; preds = %if.else
  %sub.i = sub i64 %sub.ptr.sub.i, %add
  %add.ptr.i = getelementptr inbounds i8, ptr %userInfo.val, i64 %add
  tail call void @_ZN5arrow8internal11UriUnescapeB5cxx11ESt17basic_string_viewIcSt11char_traitsIcEE(ptr sret(%"class.std::__cxx11::basic_string") align 8 %agg.result, i64 %sub.i, ptr nonnull %add.ptr.i)
  br label %return

return:                                           ; preds = %_ZNKSt17basic_string_viewIcSt11char_traitsIcEE6substrEmm.exit, %if.then
  ret void
}